target datalayout = "e-m:e-p270:32:32-p271:32:32-p272:64:64-i64:64-i128:128-f80:128-n8:16:32:64-S128"
target triple = "x86_64-pc-linux-gnu"

%struct.AVFilterContext = type { ptr, ptr, ptr, ptr, ptr, i32, ptr, ptr, i32, ptr, ptr, i32, i32, ptr, ptr, ptr, ptr, i32, ptr, i32, i32 }
%struct.LagfunContext = type { ptr, float, i32, i32, i32, [4 x i32], [4 x i32], [4 x i32], [4 x ptr], [2 x ptr] }

; Function Attrs: cold nounwind optsize uwtable
define internal void @uninit(ptr noundef %0) #0 {
  %2 = alloca ptr, align 8
  %3 = alloca ptr, align 8
  %4 = alloca i32, align 4
  store ptr %0, ptr %2, align 8, !tbaa !4
  call void @llvm.lifetime.start.p0(i64 8, ptr %3) #7
  %5 = load ptr, ptr %2, align 8, !tbaa !4
  %6 = getelementptr inbounds nuw %struct.AVFilterContext, ptr %5, i32 0, i32 9
  %7 = load ptr, ptr %6, align 8, !tbaa !9
  store ptr %7, ptr %3, align 8, !tbaa !22
  call void @llvm.lifetime.start.p0(i64 4, ptr %4) #7
  store i32 0, ptr %4, align 4, !tbaa !24
  br label %8

8:                                                ; preds = %21, %1
  %9 = load i32, ptr %4, align 4, !tbaa !24
  %10 = load ptr, ptr %3, align 8, !tbaa !22
  %11 = getelementptr inbounds nuw %struct.LagfunContext, ptr %10, i32 0, i32 4
  %12 = load i32, ptr %11, align 4, !tbaa !25
  %13 = icmp slt i32 %9, %12
  br i1 %13, label %15, label %14

14:                                               ; preds = %8
  call void @llvm.lifetime.end.p0(i64 4, ptr %4) #7
  br label %24

15:                                               ; preds = %8
  %16 = load ptr, ptr %3, align 8, !tbaa !22
  %17 = getelementptr inbounds nuw %struct.LagfunContext, ptr %16, i32 0, i32 8
  %18 = load i32, ptr %4, align 4, !tbaa !24
  %19 = sext i32 %18 to i64
  %20 = getelementptr inbounds [4 x ptr], ptr %17, i64 0, i64 %19
  call void @av_freep(ptr noundef %20)
  br label %21

21:                                               ; preds = %15
  %22 = load i32, ptr %4, align 4, !tbaa !24
  %23 = add nsw i32 %22, 1
  store i32 %23, ptr %4, align 4, !tbaa !24
  br label %8, !llvm.loop !28

24:                                               ; preds = %14
  call void @llvm.lifetime.end.p0(i64 8, ptr %3) #7
  ret void
}